target datalayout = "e-m:e-p270:32:32-p271:32:32-p272:64:64-i64:64-i128:128-f80:128-n8:16:32:64-S128"
target triple = "x86_64-pc-linux-gnu"

%"class.std::__cxx11::basic_string" = type { %"struct.std::__cxx11::basic_string<char>::_Alloc_hider", i64, %union.anon }
%"struct.std::__cxx11::basic_string<char>::_Alloc_hider" = type { ptr }
%union.anon = type { i64, [8 x i8] }
%"struct.std::_Vector_base" = type { %"struct.std::_Vector_base<jsonnet::internal::FodderElement, std::allocator<jsonnet::internal::FodderElement>>::_Vector_impl" }
%"struct.std::_Vector_base<jsonnet::internal::FodderElement, std::allocator<jsonnet::internal::FodderElement>>::_Vector_impl" = type { %"struct.std::_Vector_base<jsonnet::internal::FodderElement, std::allocator<jsonnet::internal::FodderElement>>::_Vector_impl_data" }
%"struct.std::_Vector_base<jsonnet::internal::FodderElement, std::allocator<jsonnet::internal::FodderElement>>::_Vector_impl_data" = type { ptr, ptr, ptr }
%"struct.jsonnet::internal::AST" = type { ptr, %"struct.jsonnet::internal::LocationRange", i32, %"class.std::vector", %"class.std::vector.59" }
%"struct.jsonnet::internal::LocationRange" = type { %"class.std::__cxx11::basic_string", %"struct.jsonnet::internal::Location", %"struct.jsonnet::internal::Location" }
%"struct.jsonnet::internal::Location" = type { i64, i64 }
%"class.std::vector" = type { %"struct.std::_Vector_base" }
%"class.std::vector.59" = type { %"struct.std::_Vector_base.60" }
%"struct.std::_Vector_base.60" = type { %"struct.std::_Vector_base<const jsonnet::internal::Identifier *, std::allocator<const jsonnet::internal::Identifier *>>::_Vector_impl" }
%"struct.std::_Vector_base<const jsonnet::internal::Identifier *, std::allocator<const jsonnet::internal::Identifier *>>::_Vector_impl" = type { %"struct.std::_Vector_base<const jsonnet::internal::Identifier *, std::allocator<const jsonnet::internal::Identifier *>>::_Vector_impl_data" }
%"struct.std::_Vector_base<const jsonnet::internal::Identifier *, std::allocator<const jsonnet::internal::Identifier *>>::_Vector_impl_data" = type { ptr, ptr, ptr }
%"struct.jsonnet::internal::Apply" = type <{ %"struct.jsonnet::internal::AST", ptr, %"class.std::vector", %"class.std::vector.64", i8, [7 x i8], %"class.std::vector", %"class.std::vector", i8, [7 x i8] }>
%"class.std::vector.64" = type { %"struct.std::_Vector_base.65" }
%"struct.std::_Vector_base.65" = type { %"struct.std::_Vector_base<jsonnet::internal::ArgParam, std::allocator<jsonnet::internal::ArgParam>>::_Vector_impl" }
%"struct.std::_Vector_base<jsonnet::internal::ArgParam, std::allocator<jsonnet::internal::ArgParam>>::_Vector_impl" = type { %"struct.std::_Vector_base<jsonnet::internal::ArgParam, std::allocator<jsonnet::internal::ArgParam>>::_Vector_impl_data" }
%"struct.std::_Vector_base<jsonnet::internal::ArgParam, std::allocator<jsonnet::internal::ArgParam>>::_Vector_impl_data" = type { ptr, ptr, ptr }
%"struct.jsonnet::internal::ApplyBrace" = type { %"struct.jsonnet::internal::AST", ptr, ptr }
%"struct.jsonnet::internal::Binary" = type { %"struct.jsonnet::internal::AST", ptr, %"class.std::vector", i32, ptr }
%"struct.jsonnet::internal::InSuper" = type { %"struct.jsonnet::internal::AST", ptr, %"class.std::vector", %"class.std::vector" }
%"struct.jsonnet::internal::Index" = type { %"struct.jsonnet::internal::AST", ptr, %"class.std::vector", i8, ptr, %"class.std::vector", ptr, %"class.std::vector", ptr, %"class.std::vector", ptr }

@_ZTIN7jsonnet8internal3ASTE = linkonce_odr constant { ptr, ptr } { ptr getelementptr inbounds (ptr, ptr @_ZTVN10__cxxabiv117__class_type_infoE, i64 2), ptr @_ZTSN7jsonnet8internal3ASTE }, comdat, align 8
@_ZTIN7jsonnet8internal5ApplyE = linkonce_odr constant { ptr, ptr, ptr } { ptr getelementptr inbounds (ptr, ptr @_ZTVN10__cxxabiv120__si_class_type_infoE, i64 2), ptr @_ZTSN7jsonnet8internal5ApplyE, ptr @_ZTIN7jsonnet8internal3ASTE }, comdat, align 8
@_ZTIN7jsonnet8internal10ApplyBraceE = linkonce_odr constant { ptr, ptr, ptr } { ptr getelementptr inbounds (ptr, ptr @_ZTVN10__cxxabiv120__si_class_type_infoE, i64 2), ptr @_ZTSN7jsonnet8internal10ApplyBraceE, ptr @_ZTIN7jsonnet8internal3ASTE }, comdat, align 8
@_ZTIN7jsonnet8internal6BinaryE = linkonce_odr constant { ptr, ptr, ptr } { ptr getelementptr inbounds (ptr, ptr @_ZTVN10__cxxabiv120__si_class_type_infoE, i64 2), ptr @_ZTSN7jsonnet8internal6BinaryE, ptr @_ZTIN7jsonnet8internal3ASTE }, comdat, align 8
@_ZTIN7jsonnet8internal5IndexE = linkonce_odr constant { ptr, ptr, ptr } { ptr getelementptr inbounds (ptr, ptr @_ZTVN10__cxxabiv120__si_class_type_infoE, i64 2), ptr @_ZTSN7jsonnet8internal5IndexE, ptr @_ZTIN7jsonnet8internal3ASTE }, comdat, align 8
@_ZTIN7jsonnet8internal7InSuperE = linkonce_odr constant { ptr, ptr, ptr } { ptr getelementptr inbounds (ptr, ptr @_ZTVN10__cxxabiv120__si_class_type_infoE, i64 2), ptr @_ZTSN7jsonnet8internal7InSuperE, ptr @_ZTIN7jsonnet8internal3ASTE }, comdat, align 8

; Function Attrs: mustprogress nounwind uwtable
define internal noundef ptr @_ZN7jsonnet8internalL14left_recursiveEPNS0_3ASTE(ptr noundef %0) #5 {
  %2 = alloca ptr, align 8
  %3 = alloca ptr, align 8
  %4 = alloca ptr, align 8
  %5 = alloca i32, align 4
  %6 = alloca ptr, align 8
  %7 = alloca ptr, align 8
  %8 = alloca ptr, align 8
  %9 = alloca ptr, align 8
  store ptr %0, ptr %3, align 8, !tbaa !71
  call void @llvm.lifetime.start.p0(i64 8, ptr %4) #3
  %10 = load ptr, ptr %3, align 8, !tbaa !71
  %11 = icmp eq ptr %10, null
  br i1 %11, label %14, label %12

12:                                               ; preds = %1
  %13 = call ptr @__dynamic_cast(ptr %10, ptr @_ZTIN7jsonnet8internal3ASTE, ptr @_ZTIN7jsonnet8internal5ApplyE, i64 0) #3
  br label %15

14:                                               ; preds = %1
  br label %15

15:                                               ; preds = %14, %12
  %16 = phi ptr [ %13, %12 ], [ null, %14 ]
  store ptr %16, ptr %4, align 8, !tbaa !136
  %17 = load ptr, ptr %4, align 8, !tbaa !136
  %18 = icmp ne ptr %17, null
  br i1 %18, label %19, label %23

19:                                               ; preds = %15
  %20 = load ptr, ptr %4, align 8, !tbaa !136
  %21 = getelementptr inbounds nuw %"struct.jsonnet::internal::Apply", ptr %20, i32 0, i32 1
  %22 = load ptr, ptr %21, align 8, !tbaa !138
  store ptr %22, ptr %2, align 8
  store i32 1, ptr %5, align 4
  br label %24

23:                                               ; preds = %15
  store i32 0, ptr %5, align 4
  br label %24

24:                                               ; preds = %23, %19
  call void @llvm.lifetime.end.p0(i64 8, ptr %4) #3
  %25 = load i32, ptr %5, align 4
  switch i32 %25, label %97 [
    i32 0, label %26
    i32 1, label %95
  ]

26:                                               ; preds = %24
  call void @llvm.lifetime.start.p0(i64 8, ptr %6) #3
  %27 = load ptr, ptr %3, align 8, !tbaa !71
  %28 = icmp eq ptr %27, null
  br i1 %28, label %31, label %29

29:                                               ; preds = %26
  %30 = call ptr @__dynamic_cast(ptr %27, ptr @_ZTIN7jsonnet8internal3ASTE, ptr @_ZTIN7jsonnet8internal10ApplyBraceE, i64 0) #3
  br label %32

31:                                               ; preds = %26
  br label %32

32:                                               ; preds = %31, %29
  %33 = phi ptr [ %30, %29 ], [ null, %31 ]
  store ptr %33, ptr %6, align 8, !tbaa !168
  %34 = load ptr, ptr %6, align 8, !tbaa !168
  %35 = icmp ne ptr %34, null
  br i1 %35, label %36, label %40

36:                                               ; preds = %32
  %37 = load ptr, ptr %6, align 8, !tbaa !168
  %38 = getelementptr inbounds nuw %"struct.jsonnet::internal::ApplyBrace", ptr %37, i32 0, i32 1
  %39 = load ptr, ptr %38, align 8, !tbaa !170
  store ptr %39, ptr %2, align 8
  store i32 1, ptr %5, align 4
  br label %41

40:                                               ; preds = %32
  store i32 0, ptr %5, align 4
  br label %41

41:                                               ; preds = %40, %36
  call void @llvm.lifetime.end.p0(i64 8, ptr %6) #3
  %42 = load i32, ptr %5, align 4
  switch i32 %42, label %97 [
    i32 0, label %43
    i32 1, label %95
  ]

43:                                               ; preds = %41
  call void @llvm.lifetime.start.p0(i64 8, ptr %7) #3
  %44 = load ptr, ptr %3, align 8, !tbaa !71
  %45 = icmp eq ptr %44, null
  br i1 %45, label %48, label %46

46:                                               ; preds = %43
  %47 = call ptr @__dynamic_cast(ptr %44, ptr @_ZTIN7jsonnet8internal3ASTE, ptr @_ZTIN7jsonnet8internal6BinaryE, i64 0) #3
  br label %49

48:                                               ; preds = %43
  br label %49

49:                                               ; preds = %48, %46
  %50 = phi ptr [ %47, %46 ], [ null, %48 ]
  store ptr %50, ptr %7, align 8, !tbaa !204
  %51 = load ptr, ptr %7, align 8, !tbaa !204
  %52 = icmp ne ptr %51, null
  br i1 %52, label %53, label %57

53:                                               ; preds = %49
  %54 = load ptr, ptr %7, align 8, !tbaa !204
  %55 = getelementptr inbounds nuw %"struct.jsonnet::internal::Binary", ptr %54, i32 0, i32 1
  %56 = load ptr, ptr %55, align 8, !tbaa !206
  store ptr %56, ptr %2, align 8
  store i32 1, ptr %5, align 4
  br label %58

57:                                               ; preds = %49
  store i32 0, ptr %5, align 4
  br label %58

58:                                               ; preds = %57, %53
  call void @llvm.lifetime.end.p0(i64 8, ptr %7) #3
  %59 = load i32, ptr %5, align 4
  switch i32 %59, label %97 [
    i32 0, label %60
    i32 1, label %95
  ]

60:                                               ; preds = %58
  call void @llvm.lifetime.start.p0(i64 8, ptr %8) #3
  %61 = load ptr, ptr %3, align 8, !tbaa !71
  %62 = icmp eq ptr %61, null
  br i1 %62, label %65, label %63

63:                                               ; preds = %60
  %64 = call ptr @__dynamic_cast(ptr %61, ptr @_ZTIN7jsonnet8internal3ASTE, ptr @_ZTIN7jsonnet8internal5IndexE, i64 0) #3
  br label %66

65:                                               ; preds = %60
  br label %66

66:                                               ; preds = %65, %63
  %67 = phi ptr [ %64, %63 ], [ null, %65 ]
  store ptr %67, ptr %8, align 8, !tbaa !244
  %68 = load ptr, ptr %8, align 8, !tbaa !244
  %69 = icmp ne ptr %68, null
  br i1 %69, label %70, label %74

70:                                               ; preds = %66
  %71 = load ptr, ptr %8, align 8, !tbaa !244
  %72 = getelementptr inbounds nuw %"struct.jsonnet::internal::Index", ptr %71, i32 0, i32 1
  %73 = load ptr, ptr %72, align 8, !tbaa !246
  store ptr %73, ptr %2, align 8
  store i32 1, ptr %5, align 4
  br label %75

74:                                               ; preds = %66
  store i32 0, ptr %5, align 4
  br label %75

75:                                               ; preds = %74, %70
  call void @llvm.lifetime.end.p0(i64 8, ptr %8) #3
  %76 = load i32, ptr %5, align 4
  switch i32 %76, label %97 [
    i32 0, label %77
    i32 1, label %95
  ]

77:                                               ; preds = %75
  call void @llvm.lifetime.start.p0(i64 8, ptr %9) #3
  %78 = load ptr, ptr %3, align 8, !tbaa !71
  %79 = icmp eq ptr %78, null
  br i1 %79, label %82, label %80

80:                                               ; preds = %77
  %81 = call ptr @__dynamic_cast(ptr %78, ptr @_ZTIN7jsonnet8internal3ASTE, ptr @_ZTIN7jsonnet8internal7InSuperE, i64 0) #3
  br label %83

82:                                               ; preds = %77
  br label %83

83:                                               ; preds = %82, %80
  %84 = phi ptr [ %81, %80 ], [ null, %82 ]
  store ptr %84, ptr %9, align 8, !tbaa !240
  %85 = load ptr, ptr %9, align 8, !tbaa !240
  %86 = icmp ne ptr %85, null
  br i1 %86, label %87, label %91

87:                                               ; preds = %83
  %88 = load ptr, ptr %9, align 8, !tbaa !240
  %89 = getelementptr inbounds nuw %"struct.jsonnet::internal::InSuper", ptr %88, i32 0, i32 1
  %90 = load ptr, ptr %89, align 8, !tbaa !242
  store ptr %90, ptr %2, align 8
  store i32 1, ptr %5, align 4
  br label %92

91:                                               ; preds = %83
  store i32 0, ptr %5, align 4
  br label %92

92:                                               ; preds = %91, %87
  call void @llvm.lifetime.end.p0(i64 8, ptr %9) #3
  %93 = load i32, ptr %5, align 4
  switch i32 %93, label %97 [
    i32 0, label %94
    i32 1, label %95
  ]

94:                                               ; preds = %92
  store ptr null, ptr %2, align 8
  br label %95

95:                                               ; preds = %94, %92, %75, %58, %41, %24
  %96 = load ptr, ptr %2, align 8
  ret ptr %96

97:                                               ; preds = %92, %75, %58, %41, %24
  unreachable
}