; Function Attrs: mustprogress nofree nounwind willreturn memory(read) uwtable
define internal fastcc noundef ptr @_ZN7jsonnet8internalL14left_recursiveEPNS0_3ASTE(ptr noundef readonly %0) unnamed_addr #7 {
  %2 = icmp eq ptr %0, null
  br i1 %2, label %.thread85, label %3

3:                                                ; preds = %1
  %4 = tail call ptr @__dynamic_cast(ptr nonnull %0, ptr nonnull @_ZTIN7jsonnet8internal3ASTE, ptr nonnull @_ZTIN7jsonnet8internal5ApplyE, i64 0) #28
  %.not.not = icmp eq ptr %4, null
  br i1 %.not.not, label %5, label %.thread85.sink.split

5:                                                ; preds = %3
  %6 = tail call ptr @__dynamic_cast(ptr nonnull %0, ptr nonnull @_ZTIN7jsonnet8internal3ASTE, ptr nonnull @_ZTIN7jsonnet8internal10ApplyBraceE, i64 0) #28
  %.not35.not = icmp eq ptr %6, null
  br i1 %.not35.not, label %7, label %.thread85.sink.split

7:                                                ; preds = %5
  %8 = tail call ptr @__dynamic_cast(ptr nonnull %0, ptr nonnull @_ZTIN7jsonnet8internal3ASTE, ptr nonnull @_ZTIN7jsonnet8internal6BinaryE, i64 0) #28
  %.not36.not = icmp eq ptr %8, null
  br i1 %.not36.not, label %9, label %.thread85.sink.split

9:                                                ; preds = %7
  %10 = tail call ptr @__dynamic_cast(ptr nonnull %0, ptr nonnull @_ZTIN7jsonnet8internal3ASTE, ptr nonnull @_ZTIN7jsonnet8internal5IndexE, i64 0) #28
  %.not37.not = icmp eq ptr %10, null
  br i1 %.not37.not, label %11, label %.thread85.sink.split

11:                                               ; preds = %9
  %12 = tail call ptr @__dynamic_cast(ptr nonnull %0, ptr nonnull @_ZTIN7jsonnet8internal3ASTE, ptr nonnull @_ZTIN7jsonnet8internal7InSuperE, i64 0) #28
  %.not38.not = icmp eq ptr %12, null
  br i1 %.not38.not, label %.thread85, label %.thread85.sink.split

.thread85.sink.split:                             ; preds = %11, %9, %7, %5, %3
  %.sink93 = phi ptr [ %4, %3 ], [ %6, %5 ], [ %8, %7 ], [ %10, %9 ], [ %12, %11 ]
  %13 = getelementptr inbounds nuw i8, ptr %.sink93, i64 128
  %14 = load ptr, ptr %13, align 8, !tbaa !55
  br label %.thread85

.thread85:                                        ; preds = %.thread85.sink.split, %1, %11
  %.1 = phi ptr [ null, %11 ], [ null, %1 ], [ %14, %.thread85.sink.split ]
  ret ptr %.1
}